; Function Attrs: nounwind uwtable
define hidden ptr @opj_t2_create(ptr noundef %0, ptr noundef %1) local_unnamed_addr #0 {
  %3 = tail call ptr @opj_calloc(i64 noundef 1, i64 noundef 16) #6
  %.not = icmp eq ptr %3, null
  br i1 %.not, label %6, label %4

4:                                                ; preds = %2
  store ptr %0, ptr %3, align 8, !tbaa !3
  %5 = getelementptr inbounds nuw i8, ptr %3, i64 8
  store ptr %1, ptr %5, align 8, !tbaa !10
  br label %6

6:                                                ; preds = %2, %4
  ret ptr %3
}